target datalayout = "e-m:e-p270:32:32-p271:32:32-p272:64:64-i64:64-i128:128-f80:128-n8:16:32:64-S128"
target triple = "x86_64-pc-linux-gnu"

%struct.mbedtls_md_context_t = type { ptr, ptr, ptr }

; Function Attrs: nounwind uwtable
define internal i32 @mgf_mask(ptr noundef %0, i64 noundef %1, ptr noundef %2, i64 noundef %3, i32 noundef %4) #0 {
  %6 = alloca i32, align 4
  %7 = alloca ptr, align 8
  %8 = alloca i64, align 8
  %9 = alloca ptr, align 8
  %10 = alloca i64, align 8
  %11 = alloca i32, align 4
  %12 = alloca [4 x i8], align 1
  %13 = alloca ptr, align 8
  %14 = alloca i32, align 4
  %15 = alloca i64, align 8
  %16 = alloca i64, align 8
  %17 = alloca [64 x i8], align 16
  %18 = alloca i32, align 4
  %19 = alloca ptr, align 8
  %20 = alloca %struct.mbedtls_md_context_t, align 8
  %21 = alloca i32, align 4
  store ptr %0, ptr %7, align 8, !tbaa !8
  store i64 %1, ptr %8, align 8, !tbaa !10
  store ptr %2, ptr %9, align 8, !tbaa !8
  store i64 %3, ptr %10, align 8, !tbaa !10
  store i32 %4, ptr %11, align 4, !tbaa !12
  call void @llvm.lifetime.start.p0(i64 4, ptr %12) #9
  call void @llvm.lifetime.start.p0(i64 8, ptr %13) #9
  call void @llvm.lifetime.start.p0(i64 4, ptr %14) #9
  call void @llvm.lifetime.start.p0(i64 8, ptr %15) #9
  call void @llvm.lifetime.start.p0(i64 8, ptr %16) #9
  call void @llvm.lifetime.start.p0(i64 64, ptr %17) #9
  call void @llvm.lifetime.start.p0(i64 4, ptr %18) #9
  store i32 0, ptr %18, align 4, !tbaa !12
  call void @llvm.lifetime.start.p0(i64 8, ptr %19) #9
  call void @llvm.lifetime.start.p0(i64 24, ptr %20) #9
  call void @mbedtls_md_init(ptr noundef %20)
  %22 = load i32, ptr %11, align 4, !tbaa !12
  %23 = call ptr @mbedtls_md_info_from_type(i32 noundef %22)
  store ptr %23, ptr %19, align 8, !tbaa !34
  %24 = load ptr, ptr %19, align 8, !tbaa !34
  %25 = icmp eq ptr %24, null
  br i1 %25, label %26, label %27

26:                                               ; preds = %5
  store i32 -16512, ptr %6, align 4
  store i32 1, ptr %21, align 4
  br label %101

27:                                               ; preds = %5
  call void @mbedtls_md_init(ptr noundef %20)
  %28 = load ptr, ptr %19, align 8, !tbaa !34
  %29 = call i32 @mbedtls_md_setup(ptr noundef %20, ptr noundef %28, i32 noundef 0)
  store i32 %29, ptr %18, align 4, !tbaa !12
  %30 = icmp ne i32 %29, 0
  br i1 %30, label %31, label %32

31:                                               ; preds = %27
  br label %98

32:                                               ; preds = %27
  %33 = load ptr, ptr %19, align 8, !tbaa !34
  %34 = call zeroext i8 @mbedtls_md_get_size(ptr noundef %33)
  %35 = zext i8 %34 to i32
  store i32 %35, ptr %14, align 4, !tbaa !12
  %36 = getelementptr inbounds [64 x i8], ptr %17, i64 0, i64 0
  call void @llvm.memset.p0.i64(ptr align 16 %36, i8 0, i64 64, i1 false)
  %37 = getelementptr inbounds [4 x i8], ptr %12, i64 0, i64 0
  call void @llvm.memset.p0.i64(ptr align 1 %37, i8 0, i64 4, i1 false)
  %38 = load ptr, ptr %7, align 8, !tbaa !8
  store ptr %38, ptr %13, align 8, !tbaa !8
  br label %39

39:                                               ; preds = %90, %32
  %40 = load i64, ptr %8, align 8, !tbaa !10
  %41 = icmp ugt i64 %40, 0
  br i1 %41, label %42, label %97

42:                                               ; preds = %39
  %43 = load i32, ptr %14, align 4, !tbaa !12
  %44 = zext i32 %43 to i64
  store i64 %44, ptr %16, align 8, !tbaa !10
  %45 = load i64, ptr %8, align 8, !tbaa !10
  %46 = load i32, ptr %14, align 4, !tbaa !12
  %47 = zext i32 %46 to i64
  %48 = icmp ult i64 %45, %47
  br i1 %48, label %49, label %51

49:                                               ; preds = %42
  %50 = load i64, ptr %8, align 8, !tbaa !10
  store i64 %50, ptr %16, align 8, !tbaa !10
  br label %51

51:                                               ; preds = %49, %42
  %52 = call i32 @mbedtls_md_starts(ptr noundef %20)
  store i32 %52, ptr %18, align 4, !tbaa !12
  %53 = icmp ne i32 %52, 0
  br i1 %53, label %54, label %55

54:                                               ; preds = %51
  br label %98

55:                                               ; preds = %51
  %56 = load ptr, ptr %9, align 8, !tbaa !8
  %57 = load i64, ptr %10, align 8, !tbaa !10
  %58 = call i32 @mbedtls_md_update(ptr noundef %20, ptr noundef %56, i64 noundef %57)
  store i32 %58, ptr %18, align 4, !tbaa !12
  %59 = icmp ne i32 %58, 0
  br i1 %59, label %60, label %61

60:                                               ; preds = %55
  br label %98

61:                                               ; preds = %55
  %62 = getelementptr inbounds [4 x i8], ptr %12, i64 0, i64 0
  %63 = call i32 @mbedtls_md_update(ptr noundef %20, ptr noundef %62, i64 noundef 4)
  store i32 %63, ptr %18, align 4, !tbaa !12
  %64 = icmp ne i32 %63, 0
  br i1 %64, label %65, label %66

65:                                               ; preds = %61
  br label %98

66:                                               ; preds = %61
  %67 = getelementptr inbounds [64 x i8], ptr %17, i64 0, i64 0
  %68 = call i32 @mbedtls_md_finish(ptr noundef %20, ptr noundef %67)
  store i32 %68, ptr %18, align 4, !tbaa !12
  %69 = icmp ne i32 %68, 0
  br i1 %69, label %70, label %71

70:                                               ; preds = %66
  br label %98

71:                                               ; preds = %66
  store i64 0, ptr %15, align 8, !tbaa !10
  br label %72

72:                                               ; preds = %87, %71
  %73 = load i64, ptr %15, align 8, !tbaa !10
  %74 = load i64, ptr %16, align 8, !tbaa !10
  %75 = icmp ult i64 %73, %74
  br i1 %75, label %76, label %90

76:                                               ; preds = %72
  %77 = load i64, ptr %15, align 8, !tbaa !10
  %78 = getelementptr inbounds nuw [64 x i8], ptr %17, i64 0, i64 %77
  %79 = load i8, ptr %78, align 1, !tbaa !33
  %80 = zext i8 %79 to i32
  %81 = load ptr, ptr %13, align 8, !tbaa !8
  %82 = getelementptr inbounds nuw i8, ptr %81, i32 1
  store ptr %82, ptr %13, align 8, !tbaa !8
  %83 = load i8, ptr %81, align 1, !tbaa !33
  %84 = zext i8 %83 to i32
  %85 = xor i32 %84, %80
  %86 = trunc i32 %85 to i8
  store i8 %86, ptr %81, align 1, !tbaa !33
  br label %87

87:                                               ; preds = %76
  %88 = load i64, ptr %15, align 8, !tbaa !10
  %89 = add i64 %88, 1
  store i64 %89, ptr %15, align 8, !tbaa !10
  br label %72, !llvm.loop !36

90:                                               ; preds = %72
  %91 = getelementptr inbounds [4 x i8], ptr %12, i64 0, i64 3
  %92 = load i8, ptr %91, align 1, !tbaa !33
  %93 = add i8 %92, 1
  store i8 %93, ptr %91, align 1, !tbaa !33
  %94 = load i64, ptr %16, align 8, !tbaa !10
  %95 = load i64, ptr %8, align 8, !tbaa !10
  %96 = sub i64 %95, %94
  store i64 %96, ptr %8, align 8, !tbaa !10
  br label %39, !llvm.loop !37

97:                                               ; preds = %39
  br label %98

98:                                               ; preds = %97, %70, %65, %60, %54, %31
  %99 = getelementptr inbounds [64 x i8], ptr %17, i64 0, i64 0
  call void @mbedtls_platform_zeroize(ptr noundef %99, i64 noundef 64)
  call void @mbedtls_md_free(ptr noundef %20)
  %100 = load i32, ptr %18, align 4, !tbaa !12
  store i32 %100, ptr %6, align 4
  store i32 1, ptr %21, align 4
  br label %101

101:                                              ; preds = %98, %26
  call void @llvm.lifetime.end.p0(i64 24, ptr %20) #9
  call void @llvm.lifetime.end.p0(i64 8, ptr %19) #9
  call void @llvm.lifetime.end.p0(i64 4, ptr %18) #9
  call void @llvm.lifetime.end.p0(i64 64, ptr %17) #9
  call void @llvm.lifetime.end.p0(i64 8, ptr %16) #9
  call void @llvm.lifetime.end.p0(i64 8, ptr %15) #9
  call void @llvm.lifetime.end.p0(i64 4, ptr %14) #9
  call void @llvm.lifetime.end.p0(i64 8, ptr %13) #9
  call void @llvm.lifetime.end.p0(i64 4, ptr %12) #9
  %102 = load i32, ptr %6, align 4
  ret i32 %102
}