; Function Attrs: nounwind uwtable
define internal fastcc i32 @mgf_mask(ptr noundef captures(none) %0, i64 noundef %1, ptr noundef %2, i64 noundef %3, i32 noundef %4) unnamed_addr #0 {
  %6 = alloca [4 x i8], align 4
  %7 = alloca [64 x i8], align 16
  %8 = alloca %struct.mbedtls_md_context_t, align 8
  call void @llvm.lifetime.start.p0(i64 4, ptr nonnull %6) #14
  call void @llvm.lifetime.start.p0(i64 64, ptr nonnull %7) #14
  call void @llvm.lifetime.start.p0(i64 24, ptr nonnull %8) #14
  call void @mbedtls_md_init(ptr noundef nonnull %8) #14
  %9 = call ptr @mbedtls_md_info_from_type(i32 noundef %4) #14
  %10 = icmp eq ptr %9, null
  br i1 %10, label %34, label %11

11:                                               ; preds = %5
  call void @mbedtls_md_init(ptr noundef nonnull %8) #14
  %12 = call i32 @mbedtls_md_setup(ptr noundef nonnull %8, ptr noundef nonnull %9, i32 noundef 0) #14
  %.not = icmp eq i32 %12, 0
  br i1 %.not, label %13, label %.loopexit

13:                                               ; preds = %11
  %14 = call zeroext i8 @mbedtls_md_get_size(ptr noundef nonnull %9) #14
  call void @llvm.memset.p0.i64(ptr noundef nonnull align 16 dereferenceable(64) %7, i8 0, i64 64, i1 false)
  store i32 0, ptr %6, align 4
  %15 = zext i8 %14 to i64
  %.not3542 = icmp eq i64 %1, 0
  br i1 %.not3542, label %.loopexit, label %.lr.ph46

.lr.ph46:                                         ; preds = %13
  %16 = getelementptr inbounds nuw i8, ptr %6, i64 3
  %.not56 = icmp eq i8 %14, 0
  br label %17

17:                                               ; preds = %.lr.ph46, %._crit_edge
  %.02344 = phi i64 [ %1, %.lr.ph46 ], [ %33, %._crit_edge ]
  %.02443 = phi ptr [ %0, %.lr.ph46 ], [ %.125.lcssa, %._crit_edge ]
  %spec.select = call i64 @llvm.umin.i64(i64 %.02344, i64 %15)
  %18 = call i32 @mbedtls_md_starts(ptr noundef nonnull %8) #14
  %.not36 = icmp eq i32 %18, 0
  br i1 %.not36, label %19, label %.loopexit

19:                                               ; preds = %17
  %20 = call i32 @mbedtls_md_update(ptr noundef nonnull %8, ptr noundef %2, i64 noundef %3) #14
  %.not37 = icmp eq i32 %20, 0
  br i1 %.not37, label %21, label %.loopexit

21:                                               ; preds = %19
  %22 = call i32 @mbedtls_md_update(ptr noundef nonnull %8, ptr noundef nonnull %6, i64 noundef 4) #14
  %.not38 = icmp eq i32 %22, 0
  br i1 %.not38, label %23, label %.loopexit

23:                                               ; preds = %21
  %24 = call i32 @mbedtls_md_finish(ptr noundef nonnull %8, ptr noundef nonnull %7) #14
  %.not39 = icmp eq i32 %24, 0
  br i1 %.not39, label %.preheader, label %.loopexit

.preheader:                                       ; preds = %23
  br i1 %.not56, label %._crit_edge, label %.lr.ph.preheader

.lr.ph.preheader:                                 ; preds = %.preheader
  %umax = call i64 @llvm.umax.i64(i64 %spec.select, i64 1)
  br label %.lr.ph

.lr.ph:                                           ; preds = %.lr.ph.preheader, %.lr.ph
  %.02241 = phi i64 [ %30, %.lr.ph ], [ 0, %.lr.ph.preheader ]
  %.12540 = phi ptr [ %27, %.lr.ph ], [ %.02443, %.lr.ph.preheader ]
  %25 = getelementptr inbounds nuw [64 x i8], ptr %7, i64 0, i64 %.02241
  %26 = load i8, ptr %25, align 1, !tbaa !23
  %27 = getelementptr inbounds nuw i8, ptr %.12540, i64 1
  %28 = load i8, ptr %.12540, align 1, !tbaa !23
  %29 = xor i8 %28, %26
  store i8 %29, ptr %.12540, align 1, !tbaa !23
  %30 = add nuw nsw i64 %.02241, 1
  %exitcond.not = icmp eq i64 %30, %umax
  br i1 %exitcond.not, label %._crit_edge, label %.lr.ph, !llvm.loop !24

._crit_edge:                                      ; preds = %.lr.ph, %.preheader
  %.125.lcssa = phi ptr [ %.02443, %.preheader ], [ %27, %.lr.ph ]
  %31 = load i8, ptr %16, align 1, !tbaa !23
  %32 = add i8 %31, 1
  store i8 %32, ptr %16, align 1, !tbaa !23
  %33 = sub i64 %.02344, %spec.select
  %.not35 = icmp eq i64 %33, 0
  br i1 %.not35, label %.loopexit, label %17, !llvm.loop !26

.loopexit:                                        ; preds = %17, %19, %21, %23, %._crit_edge, %13, %11
  %.020 = phi i32 [ %12, %11 ], [ 0, %13 ], [ %18, %17 ], [ %20, %19 ], [ %22, %21 ], [ %24, %23 ], [ 0, %._crit_edge ]
  call void @mbedtls_platform_zeroize(ptr noundef nonnull %7, i64 noundef 64) #14
  call void @mbedtls_md_free(ptr noundef nonnull %8) #14
  br label %34

34:                                               ; preds = %5, %.loopexit
  %.0 = phi i32 [ %.020, %.loopexit ], [ -16512, %5 ]
  call void @llvm.lifetime.end.p0(i64 24, ptr nonnull %8) #14
  call void @llvm.lifetime.end.p0(i64 64, ptr nonnull %7) #14
  call void @llvm.lifetime.end.p0(i64 4, ptr nonnull %6) #14
  ret i32 %.0
}